CCS PCM C Compiler, Version 4.049, 34317               06-ago-13 09:58

               Filename: C:\Users\Administrador\Desktop\Proyectos PIC-C\encender LEDS.lst

               ROM used: 280 words (3%)
                         Largest free fragment is 2048
               RAM used: 8 (2%) at main() level
                         9 (2%) worst case
               Stack:    1 locations

*
0000:  MOVLW  00
0001:  MOVWF  0A
0002:  GOTO   019
0003:  NOP
.................... //ENCEDER LEDs 
.................... //PROGRAMADOR: ELKIN URANGO 
.................... //FECHA: 06/08/13 
.................... //DATAFACTORY CyS 
....................  
.................... #include "C:\Users\Administrador\Desktop\Proyectos PIC-C\encender LEDS.h" 
.................... #include <16F877A.h> 
.................... //////// Standard Header file for the PIC16F877A device //////////////// 
.................... #device PIC16F877A 
.................... #list 
....................  
.................... #device adc=8 
.................... #FUSES NOWDT, LP, NOPUT, NOPROTECT, NODEBUG, NOBROWNOUT, NOLVP, NOCPD, WRT_50% 
.................... #use delay(clock=4000000) 
0004:  MOVLW  22
0005:  MOVWF  04
0006:  BCF    03.7
0007:  MOVF   00,W
0008:  BTFSC  03.2
0009:  GOTO   018
000A:  MOVLW  01
000B:  MOVWF  78
000C:  CLRF   77
000D:  DECFSZ 77,F
000E:  GOTO   00D
000F:  DECFSZ 78,F
0010:  GOTO   00C
0011:  MOVLW  4A
0012:  MOVWF  77
0013:  DECFSZ 77,F
0014:  GOTO   013
0015:  GOTO   016
0016:  DECFSZ 00,F
0017:  GOTO   00A
0018:  RETLW  00
.................... #use rs232(baud=9600,parity=N,xmit=PIN_C6,rcv=PIN_C7,bits=8) 
....................  
....................  
....................  
....................  
.................... void main() 
.................... { 
0019:  CLRF   04
001A:  BCF    03.7
001B:  MOVLW  1F
001C:  ANDWF  03,F
001D:  MOVLW  19
001E:  BSF    03.5
001F:  MOVWF  19
0020:  MOVLW  A6
0021:  MOVWF  18
0022:  MOVLW  90
0023:  BCF    03.5
0024:  MOVWF  18
0025:  BSF    03.5
0026:  BSF    1F.0
0027:  BSF    1F.1
0028:  BSF    1F.2
0029:  BCF    1F.3
002A:  MOVLW  07
002B:  MOVWF  1C
....................    setup_adc_ports(NO_ANALOGS); 
*
002F:  BSF    03.5
0030:  BSF    1F.0
0031:  BSF    1F.1
0032:  BSF    1F.2
0033:  BCF    1F.3
....................    setup_adc(ADC_OFF); 
0034:  BCF    03.5
0035:  BCF    1F.0
....................    setup_psp(PSP_DISABLED); 
0036:  BSF    03.5
0037:  BCF    09.4
....................    setup_spi(SPI_SS_DISABLED); 
*
002C:  MOVLW  FF
002D:  BCF    03.5
002E:  MOVWF  20
*
0038:  BCF    03.5
0039:  BCF    14.5
003A:  BCF    20.5
003B:  MOVF   20,W
003C:  BSF    03.5
003D:  MOVWF  07
003E:  BCF    03.5
003F:  BSF    20.4
0040:  MOVF   20,W
0041:  BSF    03.5
0042:  MOVWF  07
0043:  BCF    03.5
0044:  BCF    20.3
0045:  MOVF   20,W
0046:  BSF    03.5
0047:  MOVWF  07
0048:  MOVLW  01
0049:  BCF    03.5
004A:  MOVWF  14
004B:  MOVLW  00
004C:  BSF    03.5
004D:  MOVWF  14
....................    setup_timer_0(RTCC_INTERNAL|RTCC_DIV_1); 
004E:  MOVF   01,W
004F:  ANDLW  C7
0050:  IORLW  08
0051:  MOVWF  01
....................    setup_timer_1(T1_DISABLED); 
0052:  BCF    03.5
0053:  CLRF   10
....................    setup_timer_2(T2_DISABLED,0,1); 
0054:  MOVLW  00
0055:  MOVWF  78
0056:  MOVWF  12
0057:  MOVLW  00
0058:  BSF    03.5
0059:  MOVWF  12
....................    setup_comparator(NC_NC_NC_NC); 
005A:  MOVLW  07
005B:  MOVWF  1C
005C:  MOVF   05,W
005D:  MOVLW  03
005E:  MOVWF  77
005F:  DECFSZ 77,F
0060:  GOTO   05F
0061:  MOVF   1C,W
0062:  BCF    03.5
0063:  BCF    0D.6
....................    setup_vref(FALSE); 
0064:  BSF    03.5
0065:  CLRF   1D
....................  
....................    // TODO: USER CODE!! 
....................    WHILE (TRUE){ 
....................       //Prendo el led que esta conectado a los siguientes pines 
....................       output_high(pin_b0); 
0066:  BCF    06.0
0067:  BCF    03.5
0068:  BSF    06.0
....................       delay_ms(500); 
0069:  MOVLW  02
006A:  MOVWF  21
006B:  MOVLW  FA
006C:  MOVWF  22
006D:  CALL   004
006E:  DECFSZ 21,F
006F:  GOTO   06B
....................       output_high(pin_b1); 
0070:  BSF    03.5
0071:  BCF    06.1
0072:  BCF    03.5
0073:  BSF    06.1
....................       delay_ms(500); 
0074:  MOVLW  02
0075:  MOVWF  21
0076:  MOVLW  FA
0077:  MOVWF  22
0078:  CALL   004
0079:  DECFSZ 21,F
007A:  GOTO   076
....................       output_high(pin_b2); 
007B:  BSF    03.5
007C:  BCF    06.2
007D:  BCF    03.5
007E:  BSF    06.2
....................       delay_ms(500); 
007F:  MOVLW  02
0080:  MOVWF  21
0081:  MOVLW  FA
0082:  MOVWF  22
0083:  CALL   004
0084:  DECFSZ 21,F
0085:  GOTO   081
....................       output_high(pin_b3); 
0086:  BSF    03.5
0087:  BCF    06.3
0088:  BCF    03.5
0089:  BSF    06.3
....................       delay_ms(500); 
008A:  MOVLW  02
008B:  MOVWF  21
008C:  MOVLW  FA
008D:  MOVWF  22
008E:  CALL   004
008F:  DECFSZ 21,F
0090:  GOTO   08C
....................       output_high(pin_b4); 
0091:  BSF    03.5
0092:  BCF    06.4
0093:  BCF    03.5
0094:  BSF    06.4
....................       delay_ms(500); 
0095:  MOVLW  02
0096:  MOVWF  21
0097:  MOVLW  FA
0098:  MOVWF  22
0099:  CALL   004
009A:  DECFSZ 21,F
009B:  GOTO   097
....................       output_high(pin_b5); 
009C:  BSF    03.5
009D:  BCF    06.5
009E:  BCF    03.5
009F:  BSF    06.5
....................       delay_ms(500); 
00A0:  MOVLW  02
00A1:  MOVWF  21
00A2:  MOVLW  FA
00A3:  MOVWF  22
00A4:  CALL   004
00A5:  DECFSZ 21,F
00A6:  GOTO   0A2
....................       output_high(pin_b6); 
00A7:  BSF    03.5
00A8:  BCF    06.6
00A9:  BCF    03.5
00AA:  BSF    06.6
....................       delay_ms(500); 
00AB:  MOVLW  02
00AC:  MOVWF  21
00AD:  MOVLW  FA
00AE:  MOVWF  22
00AF:  CALL   004
00B0:  DECFSZ 21,F
00B1:  GOTO   0AD
....................       output_high(pin_b7); 
00B2:  BSF    03.5
00B3:  BCF    06.7
00B4:  BCF    03.5
00B5:  BSF    06.7
....................       //Pongo un retardo para entonces proceder a apagar los leds 
....................       delay_ms(500); 
00B6:  MOVLW  02
00B7:  MOVWF  21
00B8:  MOVLW  FA
00B9:  MOVWF  22
00BA:  CALL   004
00BB:  DECFSZ 21,F
00BC:  GOTO   0B8
....................       //Ahora mando a apagar los leds 
....................       output_low(pin_b7); 
00BD:  BSF    03.5
00BE:  BCF    06.7
00BF:  BCF    03.5
00C0:  BCF    06.7
....................       delay_ms(500); 
00C1:  MOVLW  02
00C2:  MOVWF  21
00C3:  MOVLW  FA
00C4:  MOVWF  22
00C5:  CALL   004
00C6:  DECFSZ 21,F
00C7:  GOTO   0C3
....................       output_low(pin_b6); 
00C8:  BSF    03.5
00C9:  BCF    06.6
00CA:  BCF    03.5
00CB:  BCF    06.6
....................       delay_ms(500); 
00CC:  MOVLW  02
00CD:  MOVWF  21
00CE:  MOVLW  FA
00CF:  MOVWF  22
00D0:  CALL   004
00D1:  DECFSZ 21,F
00D2:  GOTO   0CE
....................       output_low(pin_b5); 
00D3:  BSF    03.5
00D4:  BCF    06.5
00D5:  BCF    03.5
00D6:  BCF    06.5
....................       delay_ms(500); 
00D7:  MOVLW  02
00D8:  MOVWF  21
00D9:  MOVLW  FA
00DA:  MOVWF  22
00DB:  CALL   004
00DC:  DECFSZ 21,F
00DD:  GOTO   0D9
....................       output_low(pin_b4); 
00DE:  BSF    03.5
00DF:  BCF    06.4
00E0:  BCF    03.5
00E1:  BCF    06.4
....................       delay_ms(500); 
00E2:  MOVLW  02
00E3:  MOVWF  21
00E4:  MOVLW  FA
00E5:  MOVWF  22
00E6:  CALL   004
00E7:  DECFSZ 21,F
00E8:  GOTO   0E4
....................       output_low(pin_b3); 
00E9:  BSF    03.5
00EA:  BCF    06.3
00EB:  BCF    03.5
00EC:  BCF    06.3
....................       delay_ms(500); 
00ED:  MOVLW  02
00EE:  MOVWF  21
00EF:  MOVLW  FA
00F0:  MOVWF  22
00F1:  CALL   004
00F2:  DECFSZ 21,F
00F3:  GOTO   0EF
....................       output_low(pin_b2); 
00F4:  BSF    03.5
00F5:  BCF    06.2
00F6:  BCF    03.5
00F7:  BCF    06.2
....................       delay_ms(500); 
00F8:  MOVLW  02
00F9:  MOVWF  21
00FA:  MOVLW  FA
00FB:  MOVWF  22
00FC:  CALL   004
00FD:  DECFSZ 21,F
00FE:  GOTO   0FA
....................       output_low(pin_b1); 
00FF:  BSF    03.5
0100:  BCF    06.1
0101:  BCF    03.5
0102:  BCF    06.1
....................       delay_ms(500); 
0103:  MOVLW  02
0104:  MOVWF  21
0105:  MOVLW  FA
0106:  MOVWF  22
0107:  CALL   004
0108:  DECFSZ 21,F
0109:  GOTO   105
....................       output_low(pin_b0); 
010A:  BSF    03.5
010B:  BCF    06.0
010C:  BCF    03.5
010D:  BCF    06.0
....................        
....................       delay_ms(500); 
010E:  MOVLW  02
010F:  MOVWF  21
0110:  MOVLW  FA
0111:  MOVWF  22
0112:  CALL   004
0113:  DECFSZ 21,F
0114:  GOTO   110
....................    } 
0115:  BSF    03.5
0116:  GOTO   066
.................... } 
....................  
0117:  SLEEP

Configuration Fuses:
   Word  1: 3938   LP NOWDT NOPUT NODEBUG NOPROTECT NOBROWNOUT NOLVP NOCPD WRT_50%
